; Function Attrs: mustprogress nofree norecurse nosync nounwind willreturn memory(argmem: readwrite) uwtable
define dso_local noundef nonnull align 8 dereferenceable(12) ptr @_ZN4Json5Value8CZStringaSES1_(ptr noundef nonnull returned align 8 dereferenceable(12) %0, ptr nocapture noundef %1) local_unnamed_addr #11 align 2 {
  %3 = load ptr, ptr %0, align 8
  %4 = load ptr, ptr %1, align 8
  store ptr %4, ptr %0, align 8
  store ptr %3, ptr %1, align 8
  %5 = getelementptr inbounds i8, ptr %0, i64 8
  %6 = getelementptr inbounds i8, ptr %1, i64 8
  %7 = load i32, ptr %5, align 8
  %8 = load i32, ptr %6, align 4
  store i32 %8, ptr %5, align 8
  store i32 %7, ptr %6, align 4
  ret ptr %0
}